; ModuleID = '25/214.c'
source_filename = "25/214.c"
target datalayout = "e-m:e-p270:32:32-p271:32:32-p272:64:64-i64:64-f80:128-n8:16:32:64-S128"
target triple = "x86_64-pc-linux-gnu"

@.str = private unnamed_addr constant [3 x i8] c"%d\00", align 1
@.str.1 = private unnamed_addr constant [6 x i8] c"%.0lf\00", align 1

; Function Attrs: noinline nounwind uwtable
define dso_local i32 @main() #0 {
  %1 = alloca i32, align 4
  %2 = alloca i32, align 4
  %3 = alloca i32, align 4
  %4 = alloca double, align 8
  store i32 0, i32* %1, align 4
  %5 = call i32 (i8*, ...) @__isoc99_scanf(i8* getelementptr inbounds ([3 x i8], [3 x i8]* @.str, i64 0, i64 0), i32* %2)
  %6 = load i32, i32* %2, align 4
  %7 = icmp eq i32 %6, 0
  br i1 %7, label %8, label %11

8:                                                ; preds = %0
  store double 1.000000e+00, double* %4, align 8
  %9 = load double, double* %4, align 8
  %10 = call i32 (i8*, ...) @printf(i8* getelementptr inbounds ([6 x i8], [6 x i8]* @.str.1, i64 0, i64 0), double %9)
  br label %11

11:                                               ; preds = %8, %0
  %12 = load i32, i32* %2, align 4
  %13 = icmp eq i32 %12, 1
  br i1 %13, label %14, label %17

14:                                               ; preds = %11
  store double 2.000000e+00, double* %4, align 8
  %15 = load double, double* %4, align 8
  %16 = call i32 (i8*, ...) @printf(i8* getelementptr inbounds ([6 x i8], [6 x i8]* @.str.1, i64 0, i64 0), double %15)
  br label %17

17:                                               ; preds = %14, %11
  %18 = load i32, i32* %2, align 4
  %19 = icmp sge i32 %18, 2
  br i1 %19, label %20, label %33

20:                                               ; preds = %17
  store double 1.000000e+00, double* %4, align 8
  store i32 1, i32* %3, align 4
  br label %21

21:                                               ; preds = %25, %20
  %22 = load i32, i32* %3, align 4
  %23 = load i32, i32* %2, align 4
  %24 = icmp sle i32 %22, %23
  br i1 %24, label %25, label %30

25:                                               ; preds = %21
  %26 = load double, double* %4, align 8
  %27 = fmul double 2.000000e+00, %26
  store double %27, double* %4, align 8
  %28 = load i32, i32* %3, align 4
  %29 = add nsw i32 %28, 1
  store i32 %29, i32* %3, align 4
  br label %21

30:                                               ; preds = %21
  %31 = load double, double* %4, align 8
  %32 = call i32 (i8*, ...) @printf(i8* getelementptr inbounds ([6 x i8], [6 x i8]* @.str.1, i64 0, i64 0), double %31)
  br label %33

33:                                               ; preds = %30, %17
  ret i32 0
}

declare dso_local i32 @__isoc99_scanf(i8*, ...) #1

declare dso_local i32 @printf(i8*, ...) #1


!llvm.module.flags = !{!0}
!llvm.ident = !{!1}

!0 = !{i32 1, !"wchar_size", i32 4}
!1 = !{!"clang version 10.0.0-4ubuntu1 "}
